target datalayout = "e-m:e-p270:32:32-p271:32:32-p272:64:64-i64:64-i128:128-f80:128-n8:16:32:64-S128"
target triple = "x86_64-pc-linux-gnu"

%"struct.llvm::MDNode::Header" = type <{ i64, i32, [4 x i8] }>

@_ZN4llvm6MDNode6HeaderC1EmNS_8Metadata11StorageTypeE = unnamed_addr alias void (ptr, i64, i32), ptr @_ZN4llvm6MDNode6HeaderC2EmNS_8Metadata11StorageTypeE

; Function Attrs: mustprogress nounwind uwtable
define linkonce_odr noundef nonnull align 8 dereferenceable(8) ptr @_ZSt3maxImERKT_S2_S2_(ptr noundef nonnull align 8 dereferenceable(8) %0, ptr noundef nonnull align 8 dereferenceable(8) %1) #0 comdat {
  %3 = alloca ptr, align 8
  %4 = alloca ptr, align 8
  %5 = alloca ptr, align 8
  store ptr %0, ptr %4, align 8
  store ptr %1, ptr %5, align 8
  %6 = load ptr, ptr %4, align 8
  %7 = load i64, ptr %6, align 8
  %8 = load ptr, ptr %5, align 8
  %9 = load i64, ptr %8, align 8
  %10 = icmp ult i64 %7, %9
  br i1 %10, label %11, label %13

11:                                               ; preds = %2
  %12 = load ptr, ptr %5, align 8
  store ptr %12, ptr %3, align 8
  br label %15

13:                                               ; preds = %2
  %14 = load ptr, ptr %4, align 8
  store ptr %14, ptr %3, align 8
  br label %15

15:                                               ; preds = %13, %11
  %16 = load ptr, ptr %3, align 8
  ret ptr %16
}

; Function Attrs: mustprogress nounwind uwtable
define linkonce_odr hidden noundef i64 @_ZN4llvm10divideCeilEmm(i64 noundef %0, i64 noundef %1) #0 comdat {
  %3 = alloca i64, align 8
  %4 = alloca i64, align 8
  %5 = alloca i64, align 8
  store i64 %0, ptr %3, align 8
  store i64 %1, ptr %4, align 8
  %6 = load i64, ptr %3, align 8
  %7 = icmp ne i64 %6, 0
  %8 = zext i1 %7 to i64
  store i64 %8, ptr %5, align 8
  %9 = load i64, ptr %3, align 8
  %10 = load i64, ptr %5, align 8
  %11 = sub i64 %9, %10
  %12 = load i64, ptr %4, align 8
  %13 = udiv i64 %11, %12
  %14 = load i64, ptr %5, align 8
  %15 = add i64 %13, %14
  ret i64 %15
}

; Function Attrs: mustprogress nounwind uwtable
define linkonce_odr hidden noundef i64 @_ZN4llvm6MDNode6Header9getOpSizeEj(i32 noundef %0) #0 comdat align 2 {
  %2 = alloca i32, align 4
  store i32 %0, ptr %2, align 4
  %3 = load i32, ptr %2, align 4
  %4 = zext i32 %3 to i64
  %5 = mul i64 8, %4
  ret i64 %5
}

; Function Attrs: mustprogress nounwind uwtable
define linkonce_odr hidden noundef i64 @_ZN4llvm6MDNode6Header12getSmallSizeEmbb(i64 noundef %0, i1 noundef zeroext %1, i1 noundef zeroext %2) #0 comdat align 2 {
  %4 = alloca i64, align 8
  %5 = alloca i8, align 1
  %6 = alloca i8, align 1
  %7 = alloca i64, align 8
  store i64 %0, ptr %4, align 8
  %8 = zext i1 %1 to i8
  store i8 %8, ptr %5, align 1
  %9 = zext i1 %2 to i8
  store i8 %9, ptr %6, align 1
  %10 = load i8, ptr %6, align 1
  %11 = trunc i8 %10 to i1
  br i1 %11, label %12, label %13

12:                                               ; preds = %3
  br label %20

13:                                               ; preds = %3
  %14 = load i8, ptr %5, align 1
  %15 = trunc i8 %14 to i1
  %16 = zext i1 %15 to i64
  %17 = mul i64 2, %16
  store i64 %17, ptr %7, align 8
  %18 = call noundef nonnull align 8 dereferenceable(8) ptr @_ZSt3maxImERKT_S2_S2_(ptr noundef nonnull align 8 dereferenceable(8) %4, ptr noundef nonnull align 8 dereferenceable(8) %7)
  %19 = load i64, ptr %18, align 8
  br label %20

20:                                               ; preds = %13, %12
  %21 = phi i64 [ 2, %12 ], [ %19, %13 ]
  ret i64 %21
}

; Function Attrs: mustprogress nounwind uwtable
define linkonce_odr hidden noundef zeroext i1 @_ZN4llvm6MDNode6Header7isLargeEm(i64 noundef %0) #0 comdat align 2 {
  %2 = alloca i64, align 8
  store i64 %0, ptr %2, align 8
  %3 = load i64, ptr %2, align 8
  %4 = icmp ugt i64 %3, 15
  ret i1 %4
}

; Function Attrs: mustprogress nounwind uwtable
define linkonce_odr hidden noundef zeroext i1 @_ZN4llvm6MDNode6Header11isResizableENS_8Metadata11StorageTypeE(i32 noundef %0) #0 comdat align 2 {
  %2 = alloca i32, align 4
  store i32 %0, ptr %2, align 4
  %3 = load i32, ptr %2, align 4
  %4 = icmp ne i32 %3, 0
  ret i1 %4
}

; Function Attrs: mustprogress nounwind uwtable
define linkonce_odr hidden noundef i64 @_ZN4llvm7alignToEmm(i64 noundef %0, i64 noundef %1) #0 comdat {
  %3 = alloca i64, align 8
  %4 = alloca i64, align 8
  %5 = alloca i64, align 8
  store i64 %0, ptr %3, align 8
  store i64 %1, ptr %4, align 8
  %6 = load i64, ptr %3, align 8
  %7 = load i64, ptr %4, align 8
  %8 = call noundef i64 @_ZN4llvm10divideCeilEmm(i64 noundef %6, i64 noundef %7)
  store i64 %8, ptr %5, align 8
  %9 = load i64, ptr %5, align 8
  %10 = load i64, ptr %4, align 8
  %11 = mul i64 %9, %10
  ret i64 %11
}

; Function Attrs: mustprogress nounwind uwtable
define linkonce_odr hidden noundef i64 @_ZN4llvm6MDNode6Header12getAllocSizeENS_8Metadata11StorageTypeEm(i32 noundef %0, i64 noundef %1) #0 comdat align 2 {
  %3 = alloca i32, align 4
  %4 = alloca i64, align 8
  store i32 %0, ptr %3, align 4
  store i64 %1, ptr %4, align 8
  %5 = load i64, ptr %4, align 8
  %6 = load i32, ptr %3, align 4
  %7 = call noundef zeroext i1 @_ZN4llvm6MDNode6Header11isResizableENS_8Metadata11StorageTypeE(i32 noundef %6)
  %8 = load i64, ptr %4, align 8
  %9 = call noundef zeroext i1 @_ZN4llvm6MDNode6Header7isLargeEm(i64 noundef %8)
  %10 = call noundef i64 @_ZN4llvm6MDNode6Header12getSmallSizeEmbb(i64 noundef %5, i1 noundef zeroext %7, i1 noundef zeroext %9)
  %11 = trunc i64 %10 to i32
  %12 = call noundef i64 @_ZN4llvm6MDNode6Header9getOpSizeEj(i32 noundef %11)
  %13 = add i64 %12, 16
  ret i64 %13
}

; Function Attrs: mustprogress nounwind uwtable
define dso_local noundef ptr @_ZN4llvm6MDNodenwEmmNS_8Metadata11StorageTypeE(i64 noundef %0, i64 noundef %1, i32 noundef %2) #0 align 2 {
  %4 = alloca i64, align 8
  %5 = alloca i64, align 8
  %6 = alloca i32, align 4
  %7 = alloca i64, align 8
  %8 = alloca ptr, align 8
  %9 = alloca ptr, align 8
  store i64 %0, ptr %4, align 8
  store i64 %1, ptr %5, align 8
  store i32 %2, ptr %6, align 4
  %10 = load i32, ptr %6, align 4
  %11 = load i64, ptr %5, align 8
  %12 = call noundef i64 @_ZN4llvm6MDNode6Header12getAllocSizeENS_8Metadata11StorageTypeEm(i32 noundef %10, i64 noundef %11)
  %13 = call noundef i64 @_ZN4llvm7alignToEmm(i64 noundef %12, i64 noundef 8)
  store i64 %13, ptr %7, align 8
  %14 = load i64, ptr %7, align 8
  %15 = load i64, ptr %4, align 8
  %16 = add i64 %14, %15
  %17 = call noalias noundef nonnull ptr @_Znwm(i64 noundef %16) #18
  store ptr %17, ptr %8, align 8
  %18 = load ptr, ptr %8, align 8
  %19 = load i64, ptr %7, align 8
  %20 = getelementptr inbounds i8, ptr %18, i64 %19
  %21 = getelementptr inbounds i8, ptr %20, i64 -16
  %22 = load i64, ptr %5, align 8
  %23 = load i32, ptr %6, align 4
  call void @_ZN4llvm6MDNode6HeaderC1EmNS_8Metadata11StorageTypeE(ptr noundef nonnull align 8 dereferenceable(12) %21, i64 noundef %22, i32 noundef %23)
  store ptr %21, ptr %9, align 8
  %24 = load ptr, ptr %9, align 8
  %25 = getelementptr inbounds %"struct.llvm::MDNode::Header", ptr %24, i64 1
  ret ptr %25
}