; Function Attrs: mustprogress nounwind uwtable
define dso_local noundef nonnull ptr @_ZN4llvm6MDNodenwEmmNS_8Metadata11StorageTypeE(i64 noundef %0, i64 noundef %1, i32 noundef %2) local_unnamed_addr #0 align 2 {
  %.not.i = icmp eq i32 %2, 0
  %4 = select i1 %.not.i, i64 0, i64 2
  %.sroa.speculated.i.i = tail call i64 @llvm.umax.i64(i64 %1, i64 %4)
  %5 = shl i64 %.sroa.speculated.i.i, 3
  %6 = and i64 %5, 34359738360
  %.inv.i = icmp ult i64 %1, 16
  %7 = add nuw nsw i64 %6, 15
  %8 = and i64 %7, 68719476728
  %9 = add nuw nsw i64 %8, 8
  %10 = select i1 %.inv.i, i64 %9, i64 32
  %11 = add i64 %10, %0
  %12 = tail call noalias noundef nonnull ptr @_Znwm(i64 noundef %11) #26
  %13 = getelementptr inbounds i8, ptr %12, i64 %10
  %14 = getelementptr inbounds i8, ptr %13, i64 -16
  tail call void @_ZN4llvm6MDNode6HeaderC1EmNS_8Metadata11StorageTypeE(ptr noundef nonnull align 8 dereferenceable(12) %14, i64 noundef %1, i32 noundef %2) #23
  ret ptr %13
}